; Function Attrs: mustprogress nounwind uwtable
define hidden void @_ZN4cvc58internal6theory5arith6linear7TreeLog5clearEv(ptr noundef nonnull align 8 dereferenceable(133) initializes((0, 4)) %0) local_unnamed_addr #9 align 2 personality ptr @__gxx_personality_v0 {
  store i32 0, ptr %0, align 8, !tbaa !18
  %2 = getelementptr inbounds nuw i8, ptr %0, i64 8
  %3 = getelementptr inbounds nuw i8, ptr %0, i64 24
  %4 = load ptr, ptr %3, align 8, !tbaa !12
  invoke void @_ZNSt8_Rb_treeIiSt4pairIKiN4cvc58internal6theory5arith6linear7NodeLogEESt10_Select1stIS8_ESt4lessIiESaIS8_EE8_M_eraseEPSt13_Rb_tree_nodeIS8_E(ptr noundef nonnull align 8 dereferenceable(48) %2, ptr noundef %4)
          to label %_ZNSt3mapIiN4cvc58internal6theory5arith6linear7NodeLogESt4lessIiESaISt4pairIKiS5_EEE5clearEv.exit unwind label %5

5:                                                ; preds = %1
  %6 = landingpad { ptr, i32 }
          catch ptr null
  %7 = extractvalue { ptr, i32 } %6, 0
  tail call void @__clang_call_terminate(ptr %7) #28
  unreachable

_ZNSt3mapIiN4cvc58internal6theory5arith6linear7NodeLogESt4lessIiESaISt4pairIKiS5_EEE5clearEv.exit: ; preds = %1
  %8 = getelementptr inbounds nuw i8, ptr %0, i64 16
  store ptr null, ptr %3, align 8, !tbaa !12
  %9 = getelementptr inbounds nuw i8, ptr %0, i64 32
  store ptr %8, ptr %9, align 8, !tbaa !3
  %10 = getelementptr inbounds nuw i8, ptr %0, i64 40
  store ptr %8, ptr %10, align 8, !tbaa !122
  %11 = getelementptr inbounds nuw i8, ptr %0, i64 48
  store i64 0, ptr %11, align 8, !tbaa !123
  %12 = getelementptr inbounds nuw i8, ptr %0, i64 56
  %13 = load ptr, ptr %12, align 8, !tbaa !172
  %14 = getelementptr inbounds nuw i8, ptr %0, i64 64
  %.promoted.i.i = load ptr, ptr %14, align 8, !tbaa !172
  %15 = icmp eq ptr %13, %.promoted.i.i
  br i1 %15, label %_ZN4cvc58internal13DenseMultiset5purgeEv.exit, label %.lr.ph.i.i

.lr.ph.i.i:                                       ; preds = %_ZNSt3mapIiN4cvc58internal6theory5arith6linear7NodeLogESt4lessIiESaISt4pairIKiS5_EEE5clearEv.exit
  %16 = getelementptr inbounds nuw i8, ptr %0, i64 80
  %17 = load ptr, ptr %16, align 8, !tbaa !173
  %18 = getelementptr inbounds nuw i8, ptr %0, i64 104
  %19 = load ptr, ptr %18, align 8, !tbaa !173
  br label %20

20:                                               ; preds = %20, %.lr.ph.i.i
  %21 = phi ptr [ %.promoted.i.i, %.lr.ph.i.i ], [ %22, %20 ]
  %22 = getelementptr inbounds i8, ptr %21, i64 -4
  %23 = load i32, ptr %22, align 4, !tbaa !13
  %24 = zext i32 %23 to i64
  %25 = getelementptr inbounds nuw i32, ptr %17, i64 %24
  store i32 -1, ptr %25, align 4, !tbaa !13
  %26 = getelementptr inbounds nuw i32, ptr %19, i64 %24
  store i32 0, ptr %26, align 4, !tbaa !13
  %27 = icmp eq ptr %13, %22
  br i1 %27, label %._crit_edge.i.i, label %20, !llvm.loop !174

._crit_edge.i.i:                                  ; preds = %20
  store ptr %22, ptr %14, align 8, !tbaa !175
  br label %_ZN4cvc58internal13DenseMultiset5purgeEv.exit

_ZN4cvc58internal13DenseMultiset5purgeEv.exit:    ; preds = %_ZNSt3mapIiN4cvc58internal6theory5arith6linear7NodeLogESt4lessIiESaISt4pairIKiS5_EEE5clearEv.exit, %._crit_edge.i.i
  %28 = getelementptr inbounds nuw i8, ptr %0, i64 128
  store i32 0, ptr %28, align 8, !tbaa !176
  ret void
}